target datalayout = "e-m:e-p270:32:32-p271:32:32-p272:64:64-i64:64-i128:128-f80:128-n8:16:32:64-S128"
target triple = "x86_64-pc-linux-gnu"

%struct.curltime = type { i64, i32 }
%struct.Curl_tree = type { ptr, ptr, ptr, ptr, %struct.curltime, ptr }

; Function Attrs: nounwind uwtable
define hidden ptr @Curl_splay(i64 %0, i32 %1, ptr noundef %2) #0 {
  %4 = alloca ptr, align 8
  %5 = alloca %struct.curltime, align 8
  %6 = alloca ptr, align 8
  %7 = alloca %struct.Curl_tree, align 8
  %8 = alloca ptr, align 8
  %9 = alloca ptr, align 8
  %10 = alloca ptr, align 8
  %11 = alloca i32, align 4
  %12 = alloca i64, align 8
  %13 = getelementptr inbounds nuw { i64, i32 }, ptr %5, i32 0, i32 0
  store i64 %0, ptr %13, align 8
  %14 = getelementptr inbounds nuw { i64, i32 }, ptr %5, i32 0, i32 1
  store i32 %1, ptr %14, align 8
  store ptr %2, ptr %6, align 8, !tbaa !3
  call void @llvm.lifetime.start.p0(i64 56, ptr %7) #4
  call void @llvm.lifetime.start.p0(i64 8, ptr %8) #4
  call void @llvm.lifetime.start.p0(i64 8, ptr %9) #4
  call void @llvm.lifetime.start.p0(i64 8, ptr %10) #4
  %15 = load ptr, ptr %6, align 8, !tbaa !3
  %16 = icmp ne ptr %15, null
  br i1 %16, label %18, label %17

17:                                               ; preds = %3
  store ptr null, ptr %4, align 8
  store i32 1, ptr %11, align 4
  br label %160

18:                                               ; preds = %3
  %19 = getelementptr inbounds nuw %struct.Curl_tree, ptr %7, i32 0, i32 1
  store ptr null, ptr %19, align 8, !tbaa !8
  %20 = getelementptr inbounds nuw %struct.Curl_tree, ptr %7, i32 0, i32 0
  store ptr null, ptr %20, align 8, !tbaa !13
  store ptr %7, ptr %9, align 8, !tbaa !3
  store ptr %7, ptr %8, align 8, !tbaa !3
  br label %21

21:                                               ; preds = %139, %18
  call void @llvm.lifetime.start.p0(i64 8, ptr %12) #4
  %22 = load ptr, ptr %6, align 8, !tbaa !3
  %23 = getelementptr inbounds nuw %struct.Curl_tree, ptr %22, i32 0, i32 4
  %24 = getelementptr inbounds nuw { i64, i32 }, ptr %5, i32 0, i32 0
  %25 = load i64, ptr %24, align 8
  %26 = getelementptr inbounds nuw { i64, i32 }, ptr %5, i32 0, i32 1
  %27 = load i32, ptr %26, align 8
  %28 = getelementptr inbounds nuw { i64, i32 }, ptr %23, i32 0, i32 0
  %29 = load i64, ptr %28, align 8
  %30 = getelementptr inbounds nuw { i64, i32 }, ptr %23, i32 0, i32 1
  %31 = load i32, ptr %30, align 8
  %32 = call i64 @Curl_timediff_us(i64 %25, i32 %27, i64 %29, i32 %31)
  store i64 %32, ptr %12, align 8, !tbaa !14
  %33 = load i64, ptr %12, align 8, !tbaa !14
  %34 = icmp slt i64 %33, 0
  br i1 %34, label %35, label %83

35:                                               ; preds = %21
  %36 = load ptr, ptr %6, align 8, !tbaa !3
  %37 = getelementptr inbounds nuw %struct.Curl_tree, ptr %36, i32 0, i32 0
  %38 = load ptr, ptr %37, align 8, !tbaa !13
  %39 = icmp ne ptr %38, null
  br i1 %39, label %41, label %40

40:                                               ; preds = %35
  store i32 2, ptr %11, align 4
  br label %137

41:                                               ; preds = %35
  %42 = load ptr, ptr %6, align 8, !tbaa !3
  %43 = getelementptr inbounds nuw %struct.Curl_tree, ptr %42, i32 0, i32 0
  %44 = load ptr, ptr %43, align 8, !tbaa !13
  %45 = getelementptr inbounds nuw %struct.Curl_tree, ptr %44, i32 0, i32 4
  %46 = getelementptr inbounds nuw { i64, i32 }, ptr %5, i32 0, i32 0
  %47 = load i64, ptr %46, align 8
  %48 = getelementptr inbounds nuw { i64, i32 }, ptr %5, i32 0, i32 1
  %49 = load i32, ptr %48, align 8
  %50 = getelementptr inbounds nuw { i64, i32 }, ptr %45, i32 0, i32 0
  %51 = load i64, ptr %50, align 8
  %52 = getelementptr inbounds nuw { i64, i32 }, ptr %45, i32 0, i32 1
  %53 = load i32, ptr %52, align 8
  %54 = call i64 @Curl_timediff_us(i64 %47, i32 %49, i64 %51, i32 %53)
  %55 = icmp slt i64 %54, 0
  br i1 %55, label %56, label %75

56:                                               ; preds = %41
  %57 = load ptr, ptr %6, align 8, !tbaa !3
  %58 = getelementptr inbounds nuw %struct.Curl_tree, ptr %57, i32 0, i32 0
  %59 = load ptr, ptr %58, align 8, !tbaa !13
  store ptr %59, ptr %10, align 8, !tbaa !3
  %60 = load ptr, ptr %10, align 8, !tbaa !3
  %61 = getelementptr inbounds nuw %struct.Curl_tree, ptr %60, i32 0, i32 1
  %62 = load ptr, ptr %61, align 8, !tbaa !8
  %63 = load ptr, ptr %6, align 8, !tbaa !3
  %64 = getelementptr inbounds nuw %struct.Curl_tree, ptr %63, i32 0, i32 0
  store ptr %62, ptr %64, align 8, !tbaa !13
  %65 = load ptr, ptr %6, align 8, !tbaa !3
  %66 = load ptr, ptr %10, align 8, !tbaa !3
  %67 = getelementptr inbounds nuw %struct.Curl_tree, ptr %66, i32 0, i32 1
  store ptr %65, ptr %67, align 8, !tbaa !8
  %68 = load ptr, ptr %10, align 8, !tbaa !3
  store ptr %68, ptr %6, align 8, !tbaa !3
  %69 = load ptr, ptr %6, align 8, !tbaa !3
  %70 = getelementptr inbounds nuw %struct.Curl_tree, ptr %69, i32 0, i32 0
  %71 = load ptr, ptr %70, align 8, !tbaa !13
  %72 = icmp ne ptr %71, null
  br i1 %72, label %74, label %73

73:                                               ; preds = %56
  store i32 2, ptr %11, align 4
  br label %137

74:                                               ; preds = %56
  br label %75

75:                                               ; preds = %74, %41
  %76 = load ptr, ptr %6, align 8, !tbaa !3
  %77 = load ptr, ptr %9, align 8, !tbaa !3
  %78 = getelementptr inbounds nuw %struct.Curl_tree, ptr %77, i32 0, i32 0
  store ptr %76, ptr %78, align 8, !tbaa !13
  %79 = load ptr, ptr %6, align 8, !tbaa !3
  store ptr %79, ptr %9, align 8, !tbaa !3
  %80 = load ptr, ptr %6, align 8, !tbaa !3
  %81 = getelementptr inbounds nuw %struct.Curl_tree, ptr %80, i32 0, i32 0
  %82 = load ptr, ptr %81, align 8, !tbaa !13
  store ptr %82, ptr %6, align 8, !tbaa !3
  br label %136

83:                                               ; preds = %21
  %84 = load i64, ptr %12, align 8, !tbaa !14
  %85 = icmp sgt i64 %84, 0
  br i1 %85, label %86, label %134

86:                                               ; preds = %83
  %87 = load ptr, ptr %6, align 8, !tbaa !3
  %88 = getelementptr inbounds nuw %struct.Curl_tree, ptr %87, i32 0, i32 1
  %89 = load ptr, ptr %88, align 8, !tbaa !8
  %90 = icmp ne ptr %89, null
  br i1 %90, label %92, label %91

91:                                               ; preds = %86
  store i32 2, ptr %11, align 4
  br label %137

92:                                               ; preds = %86
  %93 = load ptr, ptr %6, align 8, !tbaa !3
  %94 = getelementptr inbounds nuw %struct.Curl_tree, ptr %93, i32 0, i32 1
  %95 = load ptr, ptr %94, align 8, !tbaa !8
  %96 = getelementptr inbounds nuw %struct.Curl_tree, ptr %95, i32 0, i32 4
  %97 = getelementptr inbounds nuw { i64, i32 }, ptr %5, i32 0, i32 0
  %98 = load i64, ptr %97, align 8
  %99 = getelementptr inbounds nuw { i64, i32 }, ptr %5, i32 0, i32 1
  %100 = load i32, ptr %99, align 8
  %101 = getelementptr inbounds nuw { i64, i32 }, ptr %96, i32 0, i32 0
  %102 = load i64, ptr %101, align 8
  %103 = getelementptr inbounds nuw { i64, i32 }, ptr %96, i32 0, i32 1
  %104 = load i32, ptr %103, align 8
  %105 = call i64 @Curl_timediff_us(i64 %98, i32 %100, i64 %102, i32 %104)
  %106 = icmp sgt i64 %105, 0
  br i1 %106, label %107, label %126

107:                                              ; preds = %92
  %108 = load ptr, ptr %6, align 8, !tbaa !3
  %109 = getelementptr inbounds nuw %struct.Curl_tree, ptr %108, i32 0, i32 1
  %110 = load ptr, ptr %109, align 8, !tbaa !8
  store ptr %110, ptr %10, align 8, !tbaa !3
  %111 = load ptr, ptr %10, align 8, !tbaa !3
  %112 = getelementptr inbounds nuw %struct.Curl_tree, ptr %111, i32 0, i32 0
  %113 = load ptr, ptr %112, align 8, !tbaa !13
  %114 = load ptr, ptr %6, align 8, !tbaa !3
  %115 = getelementptr inbounds nuw %struct.Curl_tree, ptr %114, i32 0, i32 1
  store ptr %113, ptr %115, align 8, !tbaa !8
  %116 = load ptr, ptr %6, align 8, !tbaa !3
  %117 = load ptr, ptr %10, align 8, !tbaa !3
  %118 = getelementptr inbounds nuw %struct.Curl_tree, ptr %117, i32 0, i32 0
  store ptr %116, ptr %118, align 8, !tbaa !13
  %119 = load ptr, ptr %10, align 8, !tbaa !3
  store ptr %119, ptr %6, align 8, !tbaa !3
  %120 = load ptr, ptr %6, align 8, !tbaa !3
  %121 = getelementptr inbounds nuw %struct.Curl_tree, ptr %120, i32 0, i32 1
  %122 = load ptr, ptr %121, align 8, !tbaa !8
  %123 = icmp ne ptr %122, null
  br i1 %123, label %125, label %124

124:                                              ; preds = %107
  store i32 2, ptr %11, align 4
  br label %137

125:                                              ; preds = %107
  br label %126

126:                                              ; preds = %125, %92
  %127 = load ptr, ptr %6, align 8, !tbaa !3
  %128 = load ptr, ptr %8, align 8, !tbaa !3
  %129 = getelementptr inbounds nuw %struct.Curl_tree, ptr %128, i32 0, i32 1
  store ptr %127, ptr %129, align 8, !tbaa !8
  %130 = load ptr, ptr %6, align 8, !tbaa !3
  store ptr %130, ptr %8, align 8, !tbaa !3
  %131 = load ptr, ptr %6, align 8, !tbaa !3
  %132 = getelementptr inbounds nuw %struct.Curl_tree, ptr %131, i32 0, i32 1
  %133 = load ptr, ptr %132, align 8, !tbaa !8
  store ptr %133, ptr %6, align 8, !tbaa !3
  br label %135

134:                                              ; preds = %83
  store i32 2, ptr %11, align 4
  br label %137

135:                                              ; preds = %126
  br label %136

136:                                              ; preds = %135, %75
  store i32 0, ptr %11, align 4
  br label %137

137:                                              ; preds = %136, %134, %124, %91, %73, %40
  call void @llvm.lifetime.end.p0(i64 8, ptr %12) #4
  %138 = load i32, ptr %11, align 4
  switch i32 %138, label %162 [
    i32 0, label %139
    i32 2, label %140
  ]

139:                                              ; preds = %137
  br label %21

140:                                              ; preds = %137
  %141 = load ptr, ptr %6, align 8, !tbaa !3
  %142 = getelementptr inbounds nuw %struct.Curl_tree, ptr %141, i32 0, i32 0
  %143 = load ptr, ptr %142, align 8, !tbaa !13
  %144 = load ptr, ptr %8, align 8, !tbaa !3
  %145 = getelementptr inbounds nuw %struct.Curl_tree, ptr %144, i32 0, i32 1
  store ptr %143, ptr %145, align 8, !tbaa !8
  %146 = load ptr, ptr %6, align 8, !tbaa !3
  %147 = getelementptr inbounds nuw %struct.Curl_tree, ptr %146, i32 0, i32 1
  %148 = load ptr, ptr %147, align 8, !tbaa !8
  %149 = load ptr, ptr %9, align 8, !tbaa !3
  %150 = getelementptr inbounds nuw %struct.Curl_tree, ptr %149, i32 0, i32 0
  store ptr %148, ptr %150, align 8, !tbaa !13
  %151 = getelementptr inbounds nuw %struct.Curl_tree, ptr %7, i32 0, i32 1
  %152 = load ptr, ptr %151, align 8, !tbaa !8
  %153 = load ptr, ptr %6, align 8, !tbaa !3
  %154 = getelementptr inbounds nuw %struct.Curl_tree, ptr %153, i32 0, i32 0
  store ptr %152, ptr %154, align 8, !tbaa !13
  %155 = getelementptr inbounds nuw %struct.Curl_tree, ptr %7, i32 0, i32 0
  %156 = load ptr, ptr %155, align 8, !tbaa !13
  %157 = load ptr, ptr %6, align 8, !tbaa !3
  %158 = getelementptr inbounds nuw %struct.Curl_tree, ptr %157, i32 0, i32 1
  store ptr %156, ptr %158, align 8, !tbaa !8
  %159 = load ptr, ptr %6, align 8, !tbaa !3
  store ptr %159, ptr %4, align 8
  store i32 1, ptr %11, align 4
  br label %160

160:                                              ; preds = %140, %17
  call void @llvm.lifetime.end.p0(i64 8, ptr %10) #4
  call void @llvm.lifetime.end.p0(i64 8, ptr %9) #4
  call void @llvm.lifetime.end.p0(i64 8, ptr %8) #4
  call void @llvm.lifetime.end.p0(i64 56, ptr %7) #4
  %161 = load ptr, ptr %4, align 8
  ret ptr %161

162:                                              ; preds = %137
  unreachable
}