; Function Attrs: nounwind uwtable
define hidden noundef ptr @Curl_splay(i64 %0, i32 %1, ptr noundef %2) local_unnamed_addr #0 {
  %4 = alloca %struct.Curl_tree, align 8
  call void @llvm.lifetime.start.p0(i64 56, ptr nonnull %4) #7
  %.not = icmp eq ptr %2, null
  br i1 %.not, label %56, label %5

5:                                                ; preds = %3
  %6 = getelementptr inbounds nuw i8, ptr %4, i64 8
  call void @llvm.memset.p0.i64(ptr noundef nonnull align 8 dereferenceable(16) %4, i8 0, i64 16, i1 false)
  br label %7

7:                                                ; preds = %48, %5
  %.047 = phi ptr [ %2, %5 ], [ %.3, %48 ]
  %.044 = phi ptr [ %4, %5 ], [ %.246, %48 ]
  %.043 = phi ptr [ %4, %5 ], [ %.2, %48 ]
  %8 = getelementptr inbounds nuw i8, ptr %.047, i64 32
  %9 = load i64, ptr %8, align 8
  %10 = getelementptr inbounds nuw i8, ptr %.047, i64 40
  %11 = load i32, ptr %10, align 8
  %12 = tail call i64 @Curl_timediff_us(i64 %0, i32 %1, i64 %9, i32 %11) #7
  %13 = icmp slt i64 %12, 0
  br i1 %13, label %14, label %29

14:                                               ; preds = %7
  %15 = load ptr, ptr %.047, align 8, !tbaa !3
  %.not57 = icmp eq ptr %15, null
  br i1 %.not57, label %49, label %16

16:                                               ; preds = %14
  %17 = getelementptr inbounds nuw i8, ptr %15, i64 32
  %18 = load i64, ptr %17, align 8
  %19 = getelementptr inbounds nuw i8, ptr %15, i64 40
  %20 = load i32, ptr %19, align 8
  %21 = tail call i64 @Curl_timediff_us(i64 %0, i32 %1, i64 %18, i32 %20) #7
  %22 = icmp slt i64 %21, 0
  br i1 %22, label %23, label %28

23:                                               ; preds = %16
  %24 = load ptr, ptr %.047, align 8, !tbaa !3
  %25 = getelementptr inbounds nuw i8, ptr %24, i64 8
  %26 = load ptr, ptr %25, align 8, !tbaa !12
  store ptr %26, ptr %.047, align 8, !tbaa !3
  store ptr %.047, ptr %25, align 8, !tbaa !12
  %27 = load ptr, ptr %24, align 8, !tbaa !3
  %.not58 = icmp eq ptr %27, null
  br i1 %.not58, label %49, label %28

28:                                               ; preds = %23, %16
  %.249 = phi ptr [ %24, %23 ], [ %.047, %16 ]
  store ptr %.249, ptr %.043, align 8, !tbaa !3
  br label %48

29:                                               ; preds = %7
  %.not54 = icmp eq i64 %12, 0
  br i1 %.not54, label %49, label %30

30:                                               ; preds = %29
  %31 = getelementptr inbounds nuw i8, ptr %.047, i64 8
  %32 = load ptr, ptr %31, align 8, !tbaa !12
  %.not55 = icmp eq ptr %32, null
  br i1 %.not55, label %49, label %33

33:                                               ; preds = %30
  %34 = getelementptr inbounds nuw i8, ptr %32, i64 32
  %35 = load i64, ptr %34, align 8
  %36 = getelementptr inbounds nuw i8, ptr %32, i64 40
  %37 = load i32, ptr %36, align 8
  %38 = tail call i64 @Curl_timediff_us(i64 %0, i32 %1, i64 %35, i32 %37) #7
  %39 = icmp sgt i64 %38, 0
  br i1 %39, label %40, label %45

40:                                               ; preds = %33
  %41 = load ptr, ptr %31, align 8, !tbaa !12
  %42 = load ptr, ptr %41, align 8, !tbaa !3
  store ptr %42, ptr %31, align 8, !tbaa !12
  store ptr %.047, ptr %41, align 8, !tbaa !3
  %43 = getelementptr inbounds nuw i8, ptr %41, i64 8
  %44 = load ptr, ptr %43, align 8, !tbaa !12
  %.not56 = icmp eq ptr %44, null
  br i1 %.not56, label %49, label %45

45:                                               ; preds = %40, %33
  %.4 = phi ptr [ %41, %40 ], [ %.047, %33 ]
  %46 = getelementptr inbounds nuw i8, ptr %.044, i64 8
  store ptr %.4, ptr %46, align 8, !tbaa !12
  %47 = getelementptr inbounds nuw i8, ptr %.4, i64 8
  br label %48

48:                                               ; preds = %28, %45
  %.3.in = phi ptr [ %.249, %28 ], [ %47, %45 ]
  %.246 = phi ptr [ %.044, %28 ], [ %.4, %45 ]
  %.2 = phi ptr [ %.249, %28 ], [ %.043, %45 ]
  %.3 = load ptr, ptr %.3.in, align 8, !tbaa !13
  br label %7

49:                                               ; preds = %14, %23, %30, %40, %29
  %.148.ph = phi ptr [ %.047, %29 ], [ %41, %40 ], [ %.047, %30 ], [ %24, %23 ], [ %.047, %14 ]
  %50 = load ptr, ptr %.148.ph, align 8, !tbaa !3
  %51 = getelementptr inbounds nuw i8, ptr %.044, i64 8
  store ptr %50, ptr %51, align 8, !tbaa !12
  %52 = getelementptr inbounds nuw i8, ptr %.148.ph, i64 8
  %53 = load ptr, ptr %52, align 8, !tbaa !12
  store ptr %53, ptr %.043, align 8, !tbaa !3
  %54 = load ptr, ptr %6, align 8, !tbaa !12
  store ptr %54, ptr %.148.ph, align 8, !tbaa !3
  %55 = load ptr, ptr %4, align 8, !tbaa !3
  store ptr %55, ptr %52, align 8, !tbaa !12
  br label %56

56:                                               ; preds = %3, %49
  %.0 = phi ptr [ %.148.ph, %49 ], [ null, %3 ]
  call void @llvm.lifetime.end.p0(i64 56, ptr nonnull %4) #7
  ret ptr %.0
}